(lp0
V\u3063\u304d\u306e
p1
aV\u8302
p2
aV\u5f85
p3
aV\u308c\u308b\u304b
p4
aV\u5408
p5
aV\u308b
p6
aV\uff0a
p7
aV\u5c71\u9802
p8
aV\u843d\u3061
p9
aV\u5916
p10
aV\u3067\u306f
p11
aV\u5c02\u9580
p12
aV\u6e1b\u3089
p13
aV\u308d\u304b
p14
aV\u4f59\u88d5
p15
aV\u8cb8\u3057
p16
aV\u3089\u305d\u3063\u3061
p17
aV\u3067\u3057
p18
aV\u3093\u304b
p19
aV\u3067\u3055
p20
aV\u3067\u3053
p21
aV\u306a\u304f\u306a\u308a
p22
aV\u3082\u3089\u3048
p23
aV\u8ab0
p24
aV\u7279\u5fb4
p25
aV\u3053\u3067
p26
aV\u9b54\u6cd5
p27
aV\u3058\u3083\u3042\u3001
p28
aV\u3067\u3059
p29
aV\u3046\u3067
p30
aV\u308b\u3084\u3064
p31
aV\u5fdc\u3057
p32
aV\u30aa\u30ec\u30f3\u30b8
p33
aV\u3067\u3042
p34
aV\u3067\u304f
p35
aV\u3067\u304d
p36
aV\u305e
p37
aV\u3067\u304b
p38
aV\u888b
p39
aV\u5411\u3044
p40
aV\u6700\u7d42
p41
aV\u30d3\u30c3\u30af
p42
aV\u4e3b\u30b0
p43
aV\u8a71
p44
aV\u7591\u3046
p45
aV\u53cd
p46
aV\u91d1
p47
aV\u5339
p48
aV\u5f8c\u63f4
p49
aV\u77e5\u3063
p50
aV\u3053\u3063\u3061\u3067
p51
aV\u3069\u3063\u3061\u3067
p52
aV\u597d\u7269
p53
aV\u5b64
p54
aV\u3060
p55
aV\u77e5
p56
aV\u3063\u3066\u308b
p57
aV\u30d3\u30c3\u30af\u30de\u30f3\u30c6\u30a3\u30b9
p58
aV\u54e1\u5206
p59
aV\u3055\u4ed5
p60
aV\u304f\u3093
p61
aV\u96fb\u3059
p62
aV\u308b\u3088
p63
aV\u4e00\u90e8
p64
aV\u308b\u3093
p65
aV\u3070
p66
aV\u3048\u305f
p67
aV\uff12
p68
aV\u3044\u51fa\u3057
p69
aV\u7c21\u5358
p70
aV\u30fb
p71
aV1\u4eba
p72
aV\u66ff
p73
aV\u30b5\u30fc\u30c1\u3057
p74
aV\u308b\u3063
p75
aV\u3069\u3001
p76
aV\u7684
p77
aV\u5207
p78
aV\u5341\u5206
p79
aV\u3059\u3052
p80
aV\u304f\u308c\u308b
p81
aV\u500b
p82
aV\u3067\u30fc
p83
aV\u754c\u306a
p84
aV\u308b\u306e
p85
aV\u3093\u3046\u3093
p86
aV\u304a\u3044
p87
aV\u5de8\u6728
p88
aV\u9a5a\u304f
p89
aV\u5f15
p90
aV\u3084\u308a\u307e\u3057
p91
aV\u308b\u307b
p92
aV\u3057\u3087\u3063\u3068
p93
aV\u3053\u3063\u3061\u304c
p94
aV\u3058\u3083\u3042\u3046\u3061\u7720\u308a
p95
aV\u30af\u30a8\u30b9\u30c8
p96
aVG
p97
aV\u76ee
p98
aV\u308b\u304b
p99
aV\u3044\u308d\u3044\u308d
p100
aV+
p101
aV\u512a\u3057
p102
aV\u4f59
p103
aV\u5f15\u304d
p104
aV\u56de\u5fa9
p105
aV\u524d\u5217
p106
aV\u8272
p107
aV\u308b\u3057
p108
aV\u68df\u3068
p109
aV\u8cb8
p110
aV\u8fba
p111
aV\u308b\u305e
p112
aV\u30d5\u30e9\u30a4\u30c8
p113
aV\u8fd1\u3044
p114
aV\u304d\u3065
p115
aV\u30df\u30f3\u30c8
p116
aV\u7372\uff1f
p117
aV\u25cf
p118
aV\u9ec4
p119
aV\u3042\u307e\u308a
p120
aV\u3051\u6355\u308a\u3068\u3044\u3046
p121
aV\u304b
p122
aV\u826f\u3044
p123
aV\u3061\u306a
p124
aV\u3058\u3083\u3042\u30fc
p125
aV\u751f\u304d
p126
aV\u30f3\u30c8
p127
aV\u4f55
p128
aV\u304f
p129
aV\u305b
p130
aV\u6355\u7372
p131
aV\u3057\u307e\u3057\u3087\u3046
p132
aV\u3057\u3061\u3083
p133
aV\u6765
p134
aV\u304d\u3083
p135
aV\u773c\u3067
p136
aV\u305a\u3064
p137
aV\u8efd
p138
aV\u306b
p139
aV30
p140
aV\u5bfe\u3082
p141
aV\u6e1b\u3063
p142
aV\u58f0
p143
aV\u3060\u3055
p144
aV\u771f\u304c
p145
aV\u3067\u3082
p146
aV\u304d\u3053
p147
aV\u308f\u304b\u3089
p148
aV\u6210\u7acb
p149
aV\u307b
p150
aV\u6bba\u3057
p151
aV\u7121\u7406
p152
aV\u3084\u3063\u3071
p153
aV\u3055\u3063
p154
aV\u6b8b\u3063
p155
aV\u30ea\u30e5\u30c3\u30af\u30b5\u30c3\u30af
p156
aV\u305f\u3089
p157
aV\u5fd8\u308c
p158
aV\u30b5\u30a4\u30d5\u30a1
p159
aV\u898b
p160
aV\u968a\u5217
p161
aV\u8fd1
p162
aV\u5730\u3082
p163
aV\u3080\u3093
p164
aV\u9014\u4e2d
p165
aV\uff14
p166
aV\u4e0b\u306b
p167
aV\u304f\u308b\u3068
p168
aV\u306a\u3093
p169
aV\u3046\u3058\u3083
p170
aV\u30de\u30c3\u30d7
p171
aV\u3083\u66f8
p172
aV\u30ef\u30bf\u30b7
p173
aV\u3066\u3093
p174
aV\u3057\u307e\u3057
p175
aV\u30e1\u30fc\u30b8
p176
aV0
p177
aV\u5ca9
p178
aV\u30ad\u30e3\u30e9\u30af\u30bf\u30fc
p179
aV\u3057\u307e\u3059
p180
aV\u3066\u3044
p181
aV\u56de\u8010
p182
aV\u30dc
p183
aV\u3046\u3060
p184
aV\u30c1\u30a7\u30c3\u30af
p185
aV\u305d\u3046\u3044\u3048\u3070
p186
aV\u5473\u306a
p187
aV\u5bbf\u5c4b
p188
aV\u672c\u3058
p189
aV\u3057\u308c
p190
aV\u3042\u306a
p191
aV\u898b\u3066
p192
aV\u81ea\u5206
p193
aV\u3066\u308b
p194
aV\u9ec4\u8272
p195
aV\u3042\u305d\u3046\u304b
p196
aV\u3046\u306e
p197
aV\u306a\u3089
p198
aV\u3060\u3063
p199
aV\u3059\u308b
p200
aV\u308c\u3067
p201
aV\u306a\u308a
p202
aV\u3046
p203
aV\u4e0d
p204
aV\u59cb
p205
aV\u81ea
p206
aV\u306d\u3048
p207
aV\u304a\u91d1
p208
aV\u3053\u306b
p209
aV\u65b9
p210
aV\u5668\u3068
p211
aV\u3053\u3068
p212
aV\u4ed5
p213
aV\u3053\u306e
p214
aV\u53d7
p215
aV\u5099\u306e
p216
aV\u9023
p217
aV\u305d\u3053\u306b
p218
aV\u3059\u3093
p219
aV\u9996
p220
aV\u52dd
p221
aV\u3053\u3063\u3061\u304b\u3089
p222
aV\u6c17\u4ed8
p223
aV\u5411
p224
aV\u9632\u5177
p225
aV\u4ee5
p226
aV\u306f\u3069
p227
aV\u3060\u3044
p228
aV\u3066
p229
aV\u3053\u3053
p230
aV\u3060\u304b
p231
aV\u30bf\u30b7\u30ef\u30bf\u30b7\u30fc\u30d5\u30e9\u30a4\u30c8
p232
aV\u304c\u308b
p233
aV\u304c\u3089
p234
aV\u653b\u6483
p235
aV\u558b\u308a
p236
aV\u3060\u3051
p237
aV\u898b\u3064
p238
aV\u307b\u3057\u3044\u3093
p239
aV\u5199
p240
aV\u3076
p241
aV\u610f\u5916
p242
aV\u3053\u3046
p243
aV\u3001
p244
aV\u7a76\u68df
p245
aV\u7372\u3057
p246
aV\u77e5\u8b58
p247
aV\u60aa\u8cea
p248
aV\u6307
p249
aV\u6d88
p250
aV\u3067\u3063\u304b
p251
aV\u529b\u7684
p252
aV\u938c
p253
aV5\u3042
p254
aV\u306a\u3093\u304b
p255
aV\u5c01\u5370
p256
aV\u6483\u9b54
p257
aV\u3083\u306a\u3044
p258
aV\u6301\u3057
p259
aV\u3084\u3044
p260
aV\u3059\u3050
p261
aV\u3046\u306a
p262
aV\u30ab\u30de
p263
aV\u3060\u30bc
p264
aV\u6301\u3061
p265
aV\u30c0\u30f3\u30b8\u30e7\u30f3\u30de\u30c3\u30d7
p266
aV\u6301\u3063
p267
aV\u3060\u3081
p268
aV\u3059\u306d
p269
aV\u8005\u3068
p270
aV\u30a6
p271
aV\u592b
p272
aV\u884c\u304d
p273
aV\u3046\u30fc
p274
aV\u53ef\u80fd
p275
aV\u3060\u308c
p276
aV\u30a6\u30fc\u30f3\u3063
p277
aV1
p278
aV\u5f8c\u5217
p279
aV\u884c\u3055
p280
aV\uff1f
p281
aV\u3053\u308d
p282
aV\u3053\u308c
p283
aV\u4e00\u5fdc
p284
aV\u305d\u308c\u306b
p285
aV\u4eba
p286
aV\u30ac\u30e9\u30b9
p287
aV\u304c\u3059
p288
aV\u3046\u3093
p289
aV\u3044\u308b\u3051
p290
aV\u3051\u308b\u3068
p291
aV\u73cd
p292
aV\u8033\u6253
p293
aV\u3059\u308b\u3063\u3066
p294
aV\u524d
p295
aV\u6a21\u64ec
p296
aV\u304e\u308b
p297
aV\u3089\uff14
p298
aV\u4e0a\u304c
p299
aV\u3061\u3083\u3063\u305f
p300
aV\u898b\u901a
p301
aV\u6cd5\u3092
p302
aV\u5357
p303
aV\u6642\u9593
p304
aV\u308f
p305
aV\u4eba\u53e3
p306
aV\u5207\u308a
p307
aV\u6301\u3064
p308
aV\u3061
p309
aV\u5012\u3055
p310
aV\u51fa
p311
aV\u30a2\u30a4\u30c6\u30e0
p312
aV\u78ba\u304b
p313
aV\u659c\u3081
p314
aV\u3061\u3083\u3063\u3066
p315
aV\u5bb6\u304c
p316
aV\u8e74\u3068
p317
aV\u8449\u306b
p318
aV\u601d\u3046
p319
aV\u30b0\u30eb\u30fc\u30d7
p320
aV\u5f01\u306e
p321
aViP
p322
aV\u306d\u30fc
p323
aV\u3066\u304b
p324
aV\u3066\u304d
p325
aV\u30c1\u30e5\u30fc\u30c8\u30ea\u30a2\u30eb
p326
aV\u30b9\u30ca\u30d5\u30ad\u30f3\u3063
p327
aV\u8a00
p328
aV\u3060\u308d\u3046
p329
aV\u89aa\u307f
p330
aV\u305f\u305b
p331
aV\u305f\u3057
p332
aV\u307f\u305f\u3089
p333
aV\u3053\u306a
p334
aV\u3044\u8fd4\u305b
p335
aV\u3044\u30cd
p336
aV\u305f\u304b
p337
aV\u5f31\u3044
p338
aV\u305d\u308c
p339
aV\u541b\u3089
p340
aV\u305f\u3044
p341
aV\u3068\u304f
p342
aV\u3064\u3051\u308c\u3070
p343
aV\u5831
p344
aV\u5b9d\u7bb1
p345
aV\u65b0
p346
aV\u305f\u3076
p347
aV\u308c\u306f
p348
aV\u307f\u3093
p349
aV\u308c\u308b
p350
aV\u3046\u3053
p351
aV\u30b0\u30b9\u30bf\u30b9
p352
aV\u3053\u3053\u3089
p353
aV\u5bfe\u524d
p354
aV\u78ba\u5b9a
p355
aV\u5b9f\u4e16
p356
aV\u7d50\u69cb
p357
aV\u529f\u3060
p358
aV\u305f\u3063
p359
aV\u907f\u3082
p360
aV\u3042\u308b
p361
aV\u305f\u3060
p362
aV\u6240
p363
aV\u304a\u305d\u3089
p364
aV\u632f\u308b
p365
aV\u30b9\u30bf\u30b9
p366
aV\u3064\u304f
p367
aV\u3075\u3056\u3051
p368
aV\u304c
p369
aV\u3079\u3066
p370
aV\u591a
p371
aV\u5f62
p372
aV\u3086\u3046
p373
aV\u3083\u3093
p374
aV\u308c\u30fc
p375
aV\u3061\u3083\u3093
p376
aV\u653b
p377
aV\uff5e
p378
aV\u4eba\u3063
p379
aV\u65e5
p380
aV\u4e00\u3064
p381
aV\u6b66
p382
aV\u5bfe\u6210
p383
aV\u30cd\u30c3\u30c8
p384
aV\u30db\u30e0\u30f3\u30af\u30eb\u30b9
p385
aV\u3044\u304f\u3064
p386
aV7
p387
aV\u3068\u307e\u3042
p388
aV\u30eb\u30f3\u30d0\u3063
p389
aV\u3079\u305f
p390
aV\u597d\u304d
p391
aV\u3069\u3046
p392
aV\u3044\u306d
p393
aV\u30ab\u30de\u30ad\u30ea
p394
aV\u30ec\u30d9\u30eb
p395
aV\u3067\u3046\u3061
p396
aV\u4eba\u652f
p397
aV\u308c\u306a
p398
aV\u3063\u3071\u308a
p399
aV\uff09
p400
aV\u53e4\u3044
p401
aV\u53d6\u308a
p402
aV\u7a7a\u3060
p403
aV\u3083\u3046
p404
aV\u6700\u5f8c
p405
aV\u8b58\u3067
p406
aV\u7b11
p407
aV\u304d\u307e\u3059
p408
aV\u5192
p409
aV\u5408\u308f
p410
aV\u30bd\u306e
p411
aV\u308b\u3068\u3044\u3046
p412
aV\u524d\u8005
p413
aV\u3083\u306a
p414
aV\u3079\u308b
p415
aV\u30c0\u30e1
p416
aV\u70b9\u3067
p417
aV\u3061\u306a\u307f
p418
aV\u30af\u30a2\u30de\u30ea\u30f3
p419
aV\u4f1a\u3063
p420
aV\u3051\u308b
p421
aV\u3053\u3063\u3061\u306f
p422
aV\u4e00\u65e5
p423
aV\u3064\u3064\u3044\u3066
p424
aV\u3089\u3048\u308b\u3068
p425
aV\u3072\u3069
p426
aV\u30dd
p427
aV\u308c\u3066
p428
aV\u77ed\u3044
p429
aV\u4eca
p430
aV\u308c\u3060
p431
aV\u308c\u3061
p432
aV\u4ffa\u4eca
p433
aV\uff16\u30fb
p434
aV\u624b
p435
aV\u308c\u306d
p436
aV\u541b\u305f
p437
aV\u524d\u306b
p438
aV\u3060\u304b\u3089\u3053
p439
aV\u307f\u306e
p440
aV\u5168\u90e8
p441
aV\u6700\u8fd1
p442
aV\u307f\u306b
p443
aV\u305f\u308a
p444
aV\u3057
p445
aV\u623b\u308a
p446
aV\u6b66\u5668
p447
aV\u307f\u3066
p448
aV\u3059\u3054\u3044
p449
aV\u3060\u3063\u3051
p450
aV\u30d5\u30a1\u30a4\u30a2
p451
aV\u88dc
p452
aV\u305f\u3081
p453
aV\u7269\u7121
p454
aV\u3051
p455
aV\u7684\u306a
p456
aV\u7684\u306b
p457
aV\u3067
p458
aV\u308b\u30fc
p459
aV\u30a2\u30b3\u30f3\uff09
p460
aV\u308c\u304c
p461
aV\u4e26
p462
aV\u666e\u901a
p463
aV\u3057\u96e3\u3057\u3044
p464
aV\u3067\u5927
p465
aV\u52a9
p466
aV\u30d1\u30c3
p467
aV\u305f\u5f8c
p468
aV\u7d75
p469
aV\u4eca\u3044
p470
aV\u308c\u305f
p471
aV\u5927\u304d
p472
aV\u30fc
p473
aV\u308b\u3082
p474
aV\u3052\u308b
p475
aV\u3002
p476
aV\u3089\u305f
p477
aV\u5206
p478
aV\uff08
p479
aV\u3066\u3067
p480
aV\u5168\u7136
p481
aV\u9593\u5ef6
p482
aV\u660e
p483
aV\u3089\u3048
p484
aV\u5012
p485
aV\u304d\u308b\u3093
p486
aV\u305f\u3069\u308a
p487
aV\u3053\u3093\u306a
p488
aV\u5cf6\u3078
p489
aV\uff18
p490
aV\u6728\u3060
p491
aV\u3089\u3042
p492
aV\u3044\u3063\u304b
p493
aV\u3058\u3083\u3042
p494
aV\u62b1
p495
aV\u3078\u3048
p496
aV\u5909\u308f
p497
aV\u4e07
p498
aV\u6226
p499
aV\u6226\u95d8
p500
aV\u6728
p501
aV\u5f8c\u308d
p502
aV\u30ad
p503
aV\u3078\u3047
p504
aV\u5f85\u3063
p505
aV\u6c7a\u5fc3
p506
aV\u4f7f\u308f
p507
aV\u308a\u4e2d
p508
aV\u304b\u3064
p509
aV\u3072\u3068\u308a
p510
aV\u3070\u308c
p511
aV\u5728\u304c
p512
aV\u98a8
p513
aV\u756a
p514
aV\u3046\u308f
p515
aV\u305b\u3066
p516
aV\u304b\u3063
p517
aV\u3042
p518
aV\u7d44
p519
aV\u3044\u3088
p520
aV\u3044\u3089
p521
aV\u304a\u5f15
p522
aV\u3044\u3084
p523
aV\u610f\u8b58
p524
aV\u30cd
p525
aV\u304f\u3088
p526
aV\u3054\u307e\u304b
p527
aV\u306a\u308b\u3093
p528
aV\u3066\u3053
p529
aV\u305d\u3063\u304b
p530
aV\u4fbf\u5229
p531
aV\u79c1\u3059
p532
aV\u3093\uff1f
p533
aV\u3069\u3061\u3089\u304b
p534
aV\uff08\u3046
p535
aV\u3044\u3093
p536
aV\u79c1\u305f
p537
aV\u529b\u304c
p538
aV\u3069\u3046\u304b
p539
aV10
p540
aV\u652f\u63f4
p541
aV15
p542
aV\u308f\u308a
p543
aV17
p544
aV\u3068\u3044\u3063\u3066
p545
aV\u82e5\u8005
p546
aV\u898b\u3089
p547
aV\u307e\u307e
p548
aV\u30ed
p549
aV\u96a0\u308c
p550
aV\u666e
p551
aV\u30ea\u30c6\u30a3\u30ab\u30eb
p552
aV\u7720\u308a
p553
aV\u307e\u308a
p554
aV\u304b\u3057
p555
aV\u6574
p556
aV\u304b\u3055
p557
aV\u672a\u958b
p558
aV\u306a\u611f\u3058
p559
aV\uff15
p560
aV\u6c7a
p561
aV\u80fd
p562
aV\u3042\u3051\u308b\u3053
p563
aV\u305d\u3063\u3061
p564
aV\u308f\u305f
p565
aV\u306a\u308b\u307b\u3069
p566
aV\u3082
p567
aV\u5b9f\u969b
p568
aV\u308f\u306a
p569
aV\u3044\u3048
p570
aV\u305d\u9752
p571
aV\u3044\u3046
p572
aV\u3058\u3083
p573
aV\u3044\u3044
p574
aV\u843d\u3061\u308b\u3088
p575
aV\u4e16\u754c
p576
aV\u3058\u3087
p577
aV*\u3042
p578
aV\u3058\u3085
p579
aV\u305d\u3046\u3060
p580
aV\u3069\u3046\u3044\u3046
p581
aV\uff13
p582
aV\u3092
p583
aV\u30e6\u30a6
p584
aV\u30d5\u30a1\u30a4\u30a2\u30fc\u30dc\u30fc\u30eb
p585
aV\u307e\u3060
p586
aV\u3044\u3057
p587
aV\u3084\uff14
p588
aV\u601d
p589
aV\u751f
p590
aV\u3044\u308b
p591
aV\u307e\u3058
p592
aV\u307e\u3059
p593
aV\u307e\u305a
p594
aV\u307e\u305b
p595
aV\u3044\u306a
p596
aV\u3089\u30fc
p597
aV\u306a\u3063\u305f
p598
aV\u307e\u305f
p599
aV\u304b\u308b
p600
aV\u304b\u3089
p601
aV\u898b\u3048
p602
aV\u982d
p603
aV\u308f\u3042
p604
aV\u3044\u3060
p605
aV\u307e\u3057
p606
aV\u304b\u3093
p607
aV\u7d42
p608
aV\u5fc3\u3092
p609
aV\u96a0\u3057
p610
aV\u304b\u306a
p611
aV\u898b\u305b
p612
aV\u7dd1\u3088
p613
aV\u307e\u3042
p614
aV\u308f\u308c
p615
aV\u307e\u3044
p616
aV\u4eca\u4f55
p617
aV\u307e\u3046
p618
aV\u3061\u3063\u3066
p619
aV\u304a\u3063\u304d\u306a
p620
aV\u3051\u3070
p621
aV\u4e00\u500b
p622
aV\u88c2
p623
aV\u3044\u3082
p624
aV\u304d
p625
aV\u5c0e\u5165
p626
aV\u53d6
p627
aV\u3051\u307e
p628
aV\u3064\u305a\u3064
p629
aV\u3051\u3060
p630
aV\u4f53
p631
aV\u306b\u3057
p632
aV\u3082\u304a
p633
aV\u305b\u3093
p634
aV\u3051\u3069
p635
aV\u3089\u3082
p636
aV\u305d
p637
aV\u80fd\u306b
p638
aV\u56de
p639
aV\u95d8\u306a
p640
aV3\u5339
p641
aVGoogle
p642
aV\u73fe\u5b9f
p643
aV\u95d8\u3060
p644
aV\u4e0d\u660e
p645
aV\u306d
p646
aV\u95d8\u3067
p647
aV\u304a\u3063\u304d\u3044
p648
aV\u3083\u3046\u3093
p649
aV\u9577\u3057
p650
aV\u3058\u3083\u3093
p651
aV\u4f7f
p652
aV\u3044\u307e\u3063
p653
aV\u4f7f\u3048
p654
aV\u5e79
p655
aV\u307e\u3001
p656
aV\u30c3\u30c8
p657
aV\u3066\u304f
p658
aV\u307d
p659
aV\u30af
p660
aV\u900f\u660e
p661
aV\u6307\u3057
p662
aV\u3083
p663
aV\u3057\u3044
p664
aV\u3084\u308a
p665
aV\u3084\u308b
p666
aV\u3084\u3089
p667
aV\u3044\u3044\u3093
p668
aV\u3046\u3046\u3093
p669
aV\u307e\u3048
p670
aV\u304d\u53d7\u3051
p671
aV\u970a\u5a92
p672
aV\u3058\u3083\u3093\u305d
p673
aV\u3093
p674
aV\u304a\u304f
p675
aV\u3057\u3052
p676
aV\u304a\u304a
p677
aV\u7720\u3089
p678
aV\u3057\u305f
p679
aV\u9003\u3052
p680
aV\u610f\u5473
p681
aV\u30bf\u30f3\u62bc\u305b
p682
aV\u3057\u3059
p683
aV\u3058\u3083\u3042\u307f\u3093\u306a
p684
aV\u3057\u3066
p685
aV\u3075\u3046
p686
aV\u6700\u5927
p687
aV\u9023\u308c
p688
aV(
p689
aV\u3057\u306b
p690
aV\u30fc\u30c1\u306e
p691
aV\u3057\u3068
p692
aV\u304a\u306c
p693
aV\u5f97\u610f
p694
aV\u30b3
p695
aV\u3053\u308c\u306f
p696
aV\u305d\u3046\u3057
p697
aV\u4e0b\u3055
p698
aV\u306a\u308b
p699
aV8
p700
aV\u30fc\u30b7\u30e7\u30f3
p701
aV\u8abf
p702
aV\u304a\u3063
p703
aV11
p704
aV\u3042\u3048
p705
aV\u7bb1\u3092
p706
aV\u7686\u3055
p707
aV\u3051\u305f
p708
aV\u89e3\u8aac
p709
aV\u3048
p710
aV\u308f\u304b\u308b
p711
aV\u79d8\u5bc6
p712
aV\u3061\u3083
p713
aV\u8ab0\u305d
p714
aV\u7dd1
p715
aV\u9752
p716
aV\u4e2d\u304b
p717
aV\u305d\u3082
p718
aV\u3058
p719
aV\u3055\u3093
p720
aV\u30fc\u3093
p721
aV\u91cd\u3044
p722
aV\u305d\u306e
p723
aV\u5c11\u306a
p724
aV\u4eca\u7d30
p725
aV\u304b\u3089\u3093
p726
aV\u3068
p727
aV\u305a
p728
aV\u304b\u3044
p729
aV\u6c7a\u3081
p730
aV\u306a\u3001
p731
aV\u3084\u30fc
p732
aV\u304b\u3089\u308f
p733
aV\u601d\u3063
p734
aV\u7d76
p735
aV\u5927\u4ecf
p736
aV\u3044\u3064\u3082
p737
aV\u30bb\u30f3\u30b9\u30fc
p738
aV\u3080\u308f\u3051
p739
aV\u307b\u30fc
p740
aV\u3042\u3051
p741
aV\u826f\u304f
p742
aV\u305d\u3057
p743
aV\u307e\u3093
p744
aV\u3042\u3052
p745
aV\u305d\u3053
p746
aV\u3046\u3044\u3046
p747
aV\u5909
p748
aV\u3088
p749
aV\u308f\u304b\u3093\u306a
p750
aV\u30a2\u30c9\u30d0\u30a4\u30b9
p751
aV\u3084\u3001
p752
aV\u77e5\u80fd
p753
aV\u305d\u3046
p754
aV\u6e21\u3057
p755
aV\u3051\u3061\u3083\u3063\u3066
p756
aV\u5d16
p757
aV\u3050\u306b
p758
aV\u541b
p759
aV\u3068\u3059
p760
aV\u529b
p761
aV\u304a\u30fc
p762
aV\u77e5\u3089\u3093
p763
aV\u5f37\u3044
p764
aV\u3064\u308b
p765
aV\u3069\u3063\u3061
p766
aV\u3044\u3063\u3066
p767
aV\u30a8
p768
aV\u308b\u3044
p769
aV\u308b\u30cd
p770
aV\u3064\u3082
p771
aV\u304b\u3051
p772
aV\u6b69\u3044
p773
aV\u305f\u76ee
p774
aV3
p775
aV\u3061\u3092
p776
aV\u8272\u3060
p777
aV\u5206\u62c5
p778
aV\u6ed1\u3089
p779
aV\u6bba
p780
aV\u3082\u3057\u308c
p781
aV\u904b
p782
aV\u306a\u3002
p783
aV\u5927\u4e08
p784
aV\u30bd\u30b3\u30bd\u3057
p785
aV\u304d\u306e
p786
aV\u59cb\u3067
p787
aV\u3057\u3082
p788
aV\u611f\u3058
p789
aV\u304b\u3089\u3063\u3066
p790
aV\u3044\u3044\u3051
p791
aV\u4f4d\u7f6e
p792
aV\u3053\u308c\u3092
p793
aV\u3044\u304d
p794
aV\u3044\uff1f
p795
aV\u3053
p796
aV\u304b\u3063\u3066
p797
aV\u6355
p798
aV\u305f\u306e
p799
aV\u306a\u306b
p800
aV\u4e00\u56de
p801
aV\u6a5f
p802
aV\u306a\u3063
p803
aV\u3050\u5012
p804
aV\u3063
p805
aV\u77e2
p806
aV\u5168\u56de
p807
aV\u305a\u304f
p808
aV\u4ea4\u6e09
p809
aV\u9b54
p810
aV\u3084\u3064
p811
aV\u3064\u3063\u3066
p812
aV\u9053
p813
aV\u3084\u3060
p814
aV\u30b5\u30a4\u30b3\u30ed
p815
aV\u90e8\u5c4b
p816
aV\u306a\u304f
p817
aV\u306a\u304b
p818
aV\u306a\u3044
p819
aV\u306a\u3068
p820
aV\u8302\u307f
p821
aV\u306a\u3042
p822
aV\u6b21\u56de
p823
aV6
p824
aV\u4eca\u56de
p825
aV\u3063\u3068
p826
aV\u5c04\u7a0b
p827
aV\u3044\u304f
p828
aV\u3089
p829
aV\u5c4b
p830
aV6+
p831
aV\u3063\u3066
p832
aV\u3082\u3061\u308d\u3093
p833
aV\u304b\u9632
p834
aV\u9752\u3067
p835
aV\u9752\u3060
p836
aV\u5217\u3092
p837
aV\u3070\u3044
p838
aV\u9752\u3063
p839
aV\u4e0d\u80fd
p840
aV\u306a\u3044\u3093
p841
aV\u308c\u3089
p842
aV\u500b\u4f7f
p843
aV\u308a\u3068
p844
aV\u3044\u304b
p845
aV\u3063\u304b
p846
aV\u30b4\u30ad\u30d6\u30ea
p847
aV\u304b\u4e00
p848
aV\u305f\u3061\u3092
p849
aV\u3081\u3066
p850
aV\u3046\u3061
p851
aV\u30bc\u30ed\uff14
p852
aV\u30a2\u30af\u30a2\u30de\u30ea\u30f3
p853
aV\u3081\u306a
p854
aV\u304d\u3083\u3044\u3051
p855
aV\u916c\u3068
p856
aV\u3081\u306e
p857
aV\uff13\u304b
p858
aV\u3068\u3044\u3046
p859
aV\u7d76\u5bfe
p860
aV\u9632
p861
aV\u3063\u305f
p862
aV\u983c\u3080
p863
aV\u3064\u304f\u3063
p864
aV\u3070\u306a
p865
aV\u3054\u3056\u3044
p866
aV\u3063\u3051
p867
aV\u523a
p868
aV\u30a2
p869
aV\u5bbf
p870
aV\u6c34
p871
aV\u30de\u30f3\u30c6\u30a3\u30b9
p872
aV\u65e5\u672c
p873
aV\u4e08\u592b
p874
aV\u6642
p875
aV\u65b0\u3057
p876
aV\u8996\u754c
p877
aV\u7814\u7a76
p878
aV\u5148
p879
aV\u305f\u3068
p880
aVCG
p881
aV\u3066\u3063
p882
aV\u3082\u3089
p883
aV\u4e00\u4f53
p884
aV\u30a2\u30b7\u30e2
p885
aV\u306a\u305f
p886
aV\u5165\u3063
p887
aV\u6388\u3051
p888
aV\u3064\u3057
p889
aV\u77e5\u3089
p890
aV\u6edd
p891
aV\u4f5c
p892
aV\u805e
p893
aV\u85e4\u91ce
p894
aV\u307f\u305f\u3044
p895
aV\u3044\u6728
p896
aV\u6765\u308b
p897
aV\u3044\u305f
p898
aV\u5168
p899
aV\u540c\u884c
p900
aV\u77e5\u308a
p901
aV\u306e
p902
aV\u541b\u306e
p903
aV\u307d\u3044
p904
aV\u3076\u3093
p905
aV\u3044\u3063\u3071\u3044
p906
aV\u305f\u3061
p907
aV\u3082\u3061\u308d
p908
aV\u308a\u3060
p909
aV\u3067\u3044
p910
aV\u307e
p911
aV\u305d\u3063\u3061\u3067
p912
aV\u304f\u305e\u3063\u3068
p913
aV\u306e\u524d
p914
aV\u7740\u3044
p915
aV\u304f\u306e
p916
aV\u3076\u3068
p917
aV\u3084\u3063\u3066
p918
aV\u30e9\u30c3\u30ad
p919
aVj
p920
aV\u5fc5\u8981
p921
aV\u5f8c
p922
aV\u3084\u3063
p923
aV\u5c11
p924
aV\u3087\u3046
p925
aV\u3069\u306a
p926
aV\u308a\u888b
p927
aV\u304d\u305f
p928
aV\u30b2\u30fc\u30e0\u30de\u30b9\u30bf\u30fc
p929
aV\u3044
p930
aV\u3068\u308a
p931
aV\u5225
p932
aV\u305d\u3093\u306a
p933
aV)
p934
aV\u4f9d\u983c
p935
aV\u3069\u3053
p936
aV\u304d\u308b
p937
aV\u4e2d
p938
aV\u5074
p939
aV\u3072\u3069\u304f
p940
aV\u307e\u305b\u3093
p941
aV\u6ce8\u610f
p942
aV\u5f37
p943
aV\u4eba\u5de5
p944
aV9
p945
aV\u304a\u3063\u304d
p946
aV\u3072\u3069\u3044
p947
aV\u307e\u3067
p948
aV\u30bb\u30f3\u30b9
p949
aV\u30ea\u30d5\u30a1\u3055
p950
aV\u6d3b\u304d
p951
aVMP
p952
aV\u9ad8\u3044
p953
aV\u6a21
p954
aV\u5143
p955
aV\u6240\u6301
p956
aV\u914d\u3063
p957
aV\u304b\u3082
p958
aV\u3081\u308b
p959
aV\u306a\u3063\u3061\u3083\u3046\u304b
p960
aV\u5b9d
p961
aV\u884c
p962
aV\u3053\u3044\u3064
p963
aV\u52a9\u8a00
p964
aV\u306a\uff1f
p965
aV\u3089\u3057\u3044
p966
aV\u3059
p967
aV\u308f\u304b
p968
aV2\u4eba
p969
aV\u3058\u3083\u3063\u305f
p970
aV\u5834\u6240
p971
aV\u30de
p972
aV\u64ec\u6226
p973
aV\u3082\u30eb
p974
aV\u308f\u304b\u308a
p975
aV\u3051\u6301
p976
aV\u30b5\u30fc\u30c1\u3059
p977
aV\u3069
p978
aV\u30de\u30f3
p979
aV\u5217\u306b
p980
aV\u68df\u30e2
p981
aV\u5c71
p982
aV\u3044\u3066
p983
aV\u4e86\u89e3
p984
aV\u767b\u3063
p985
aV\u304b\u8a00
p986
aV\u3079
p987
aV2+
p988
aV\u9802\u307e
p989
aV\u3088\u4eca
p990
aV\u3044\u3064
p991
aV\uff0c
p992
aV\u4e00
p993
aV\u30ec\u30e2\u30f3
p994
aV\u304c\u3061\u3067
p995
aV\u5b64\u5cf6
p996
aV\u3042\u3041
p997
aV\u3042\u3042
p998
aV\u3093\u30fc
p999
aV\u304b\u308f
p1000
aV\u304a\u501f\u308a\u3057
p1001
aV\u3053\u3048
p1002
aV\u3042\u4f55
p1003
aV\u540c
p1004
aV\u6355\u307e
p1005
aV\u3046\u304b
p1006
aV\u30d5\u30a1\u30a4\u30a2\u30dc\u30fc\u30eb
p1007
aV\u4e00\u6c17
p1008
aV\u3063\u3066\u66f8
p1009
aV\uff16
p1010
aV\u3042\u305d
p1011
aV\u3042\u305f
p1012
aV\u305d\u3053\u3092
p1013
aV\u611f\u899a
p1014
aV\u3067\u304d\u308b
p1015
aV\u3044\u307e
p1016
aV\u308d\u3046
p1017
aV\u3048\u30fc
p1018
aV\u3042\u3063
p1019
aV\u30a2\u30b7\u30e2\u306b
p1020
aV\u3042\u306e
p1021
aV\u3042\u306f
p1022
aV\u3042\u3068
p1023
aV\u958b\u3051
p1024
aV\u4e2d\u306b
p1025
aV\u3089\u7d76
p1026
aV\u3055\u308c
p1027
aV\u308a\u888b\u3058\u3083
p1028
aV\u95a2\u897f
p1029
aV\u3055\u3089
p1030
aV4
p1031
aV\u8cb7
p1032
aV\u3070\u3063\u304b\u308a
p1033
aV\u308f\u305b
p1034
aV\u3044\u3063\u3061\u3083\u307d\u3044
p1035
aV\u958b
p1036
aV\u30bf
p1037
aV\u3055\u30fc
p1038
aV\u639b\u3051
p1039
aV\u4e0a
p1040
aV\u8a00\u3046
p1041
aV\u304f\u306a
p1042
aV\u8a00\u3044
p1043
aV\u3061\u3083\u3042
p1044
aV\u30a2\u30b7\u30e2\u307f
p1045
aV\u304f\u3066
p1046
aV\u9b54\u529b
p1047
aV\u5192\u967a
p1048
aV\u304f\u3060
p1049
aV\u30a2\u30b7\u30e2\u3067
p1050
aV\u3048\u308b
p1051
aV2
p1052
aV\u308b\u3063\u3066
p1053
aV\u4f53\u306f
p1054
aV\u3054
p1055
aV\u3048\u308c
p1056
aV\u79c1
p1057
aV\u5ddd
p1058
aV\u30df
p1059
aV\u3061\u3083\u3046
p1060
aV\u8a00\u3063
p1061
aV\u307f\u3093\u306a
p1062
aV\u304f\u304b
p1063
aV\u3064
p1064
aV\u304f\u308b\u3063\u3066
p1065
aV\u898b\u305f
p1066
aV\u30b4\u30d6\u30ea\u30f3
p1067
aV\u8a00\u306e
p1068
aV\u30ef
p1069
aV\u4e86\u627f
p1070
aV\u3075\u3093
p1071
aV\u9ed2\u3044
p1072
aV\u5927\u5909
p1073
aV\u30d5\u30eb\u30b9\u30bf\u30c3\u30c9
p1074
aV\u4ee5\u5916
p1075
aV\u304f\u3053
p1076
aV\u547c
p1077
aV\u3050\u3089\u3044
p1078
aV\uff01
p1079
aV\u79c1\u7269
p1080
aV\u967a\u306e
p1081
aV\u30e1\u30e2
p1082
aV\u3084
p1083
aVHP
p1084
aV\u304a\u305d\u3089\u304f
p1085
aV\u7f6e\u3044
p1086
aV\u6b21\u884c
p1087
aV\uff11
p1088
aV\u3093\u306a
p1089
aV\u6226\u3063
p1090
aV\u8f2a\u3068
p1091
aV\u3093\u306e
p1092
aV\u6c17
p1093
aV\u6edd\u304c
p1094
aV\u6298
p1095
aV\u6e1b
p1096
aV\u3093\u3060
p1097
aV\u5de8\u5927
p1098
aV\u8f2a\u3063
p1099
aV\u3044\u3063\u305f\u3093
p1100
aV\u8b66\u6212
p1101
aV\u304f\u308c
p1102
aV\u30b3\u30bd\u30b3\u30bd
p1103
aV\u30a4
p1104
aV\u5c11\u3057
p1105
aV\u305d\u3046\u3044\u3046
p1106
aV\u3093\u3053
p1107
aV\u30b7\u30e3\u30c9\u30fc
p1108
aV\u3048\u3070
p1109
aV\u89aa
p1110
aV\u8a73\u3057\u3044
p1111
aV\u66f8\u3044
p1112
aV\u3048\u306a
p1113
aVAI
p1114
aV\u8972
p1115
aV\u3061\u3083\u3093\u3068
p1116
aV\u3093\u304c
p1117
aV\u3042\u30fc
p1118
aV\u3048\u3063
p1119
aV\u4e3b
p1120
aV\u3048\u3066
p1121
aV\u3048\u3067
p1122
aV\u521d\u3060
p1123
aV\u30d4\u30f3\u30af
p1124
aV\u5145
p1125
aV5+
p1126
aV\u3053\u3063\u304b
p1127
aV\u6307\u8f2a
p1128
aV\u3042\u308c
p1129
aV\u308c\u3070
p1130
aV\u591a\u5206
p1131
aV\u306f\u3044
p1132
aV\u3042\u308a
p1133
aV\u6d88\u3055
p1134
aV\u3053\u308d\u3067
p1135
aV\u6d88\u3048
p1136
aV\u306a\u305c\u305d\u3046\u3044\u3046
p1137
aV\u3042\u3093
p1138
aV\u9ad8
p1139
aV\u4ed8\u3051
p1140
aV\u30ad\u30f3\u30b0\u30b4\u30d6\u30ea\u30f3
p1141
aV\u305f
p1142
aV\u30f3\u30b9\u30bf\u30fc
p1143
aV\u4e00\u7dd2
p1144
aV\u3055\u3059
p1145
aV\u305d\u3093\u306a\u3093
p1146
aV\u3055\u305b
p1147
aV\u30f3\u30d0\u307f
p1148
aV\u967a\u8005
p1149
aV\u2026
p1150
aV\u3053\u3063\u3061
p1151
aV\u306f
p1152
aV\u30485
p1153
aV\u6771
p1154
aV\u8a71\u3057
p1155
aV\u5185\u5bb9
p1156
aV\u306a\u308b\u307b
p1157
aV\u3055\u3044
p1158
aV\u9055\u3046
p1159
aV\u307f
p1160
aV\u73fe
p1161
aV\u3093\u3067\u3059
p1162
aV\u6700
p1163
aV\u3081\u3063\u3061
p1164
aV\u3082\u3001
p1165
aV\u3042\u308a\u3060
p1166
aV\u306a\u306e
p1167
aV\u305b\u305a
p1168
aV\u4f8b
p1169
aV\u3059\u3054
p1170
aV\u3093\u3063\u3066
p1171
aV\u6691
p1172
aV\u8f2a\u304c
p1173
aV\u3057\u3087\u3046
p1174
aV\u304f\u305d\u3046
p1175
aV\u7814
p1176
aV\u9762\u767d
p1177
aV\u5c4b\u6839
p1178
aV\u8cea\u7d20
p1179
aV\u6700\u521d
p1180
aV\u307b\u3093
p1181
aV\u7720
p1182
aV\u967d\u6c17
p1183
aV\u305b\u3070
p1184
aV\u304d\u3066
p1185
aV\u3066\u3044\u3046
p1186
aV\u3051\u306f
p1187
aV\u4f7f\u3063
p1188
aV\u602a
p1189
aV\u3064\u6301
p1190
aV\u4e0a\u306e
p1191
aV\u5730
p1192
aV\u30bf\u30a4\u30d7\u3063
p1193
aV\u30b5
p1194
aV\u5177\u3092
p1195
aV\u305b\u306a
p1196
aV\u307b\u3089
p1197
aV\u3068\u3001
p1198
aV\u4e0b
p1199
aV\u56de\u3059
p1200
aV\u3082\u3046
p1201
aV\u60c5
p1202
aV\u5074\u306f
p1203
aV\u901a\u308a
p1204
aV\u3075\u3055
p1205
aV\u3089\u3058\u3083
p1206
aV\u304a
p1207
aV\u3061\u3087\u3063
p1208
aV\u7269\u8cb7
p1209
aV\u308c
p1210
aV\u7814\u306e
p1211
aV\u3082\u3057
p1212
aV\u7d19\u306e
p1213
aV\u3068\u306f
p1214
aV\u91d1\u3066
p1215
aV\u5b58
p1216
aV\u306a\u3044\u304b
p1217
aV\u30b9\u30ca\u30d5\u30ad\u30f3
p1218
aV\u9055
p1219
aV\u5c0f\u3055
p1220
aV\u8f2a\uff1f
p1221
aV\u5165\u308c
p1222
aV\u53e3
p1223
aV\u3046\u306b
p1224
aV\u304b\u308c
p1225
aV\u5165\u308b
p1226
aV\u5165\u308a
p1227
aV\u4e00\u756a
p1228
aV\u3068\u3053
p1229
aV\u3082\u306e
p1230
aV\u306a
p1231
aV\u3068\u3057
p1232
aV\u50d5\u524d
p1233
aV\u3068\u304b
p1234
aV\u8cea\u554f
p1235
aV\u4f5c\u3063
p1236
aV\u30d2\u30fc\u30eb
p1237
aV\u3068\u304d
p1238
aV\u52d5\u3044
p1239
aV\u3068\u3046
p1240
aV\u3068\u3044
p1241
aV\u7b11\u3044
p1242
aV\u306a\u305a\u3044
p1243
aV\u8005
p1244
aVad
p1245
aV\u541b\u305f\u3061
p1246
aV\u30ea\u30d5\u30a1
p1247
aV\u3075\u3056
p1248
aV\u308a
p1249
aV\u3082\u3088
p1250
aV9+
p1251
aV\u610f
p1252
aV\u30fc\u30b7\u30e7\u30f3\u30bc\u30ed
p1253
aV\u307e\u305b\u3093\u3057
p1254
aV\u308b\u3068
p1255
aV\u4eca2
p1256
aV\u53d7\u3051
p1257
aV\u3082\u3093
p1258
aV\u3054\u3064
p1259
aV\u3088\u3001
p1260
aV\u304f\u3089\u3044\u3060
p1261
aV\u4f5c\u308b
p1262
aV\u611f
p1263
aV\u3053\u307e
p1264
aV\u306e\u3068
p1265
aV\u660e\uff09
p1266
aV\u901a\u306f
p1267
aV\u3044\u3001
p1268
aV\u3082\u3046\u3061\u3087\u3044
p1269
aV\u60aa
p1270
aV\u958b\u304f
p1271
aV\u3061\u304c
p1272
aV\u3053\u3063\u3061\u30cd
p1273
aV\u4e00\u8db3
p1274
aV\u306a\u3063\u3066
p1275
aV\u91d1\u3082
p1276
aV5
p1277
aV\u9632\u5fa1
p1278
aV\u3064\u3067
p1279
aV\u30ec\u30e2\u30f3\u30cb\u30f3\u30b0
p1280
aV\u3061\u3059
p1281
aV\u3054\u3044
p1282
aV\u3063\u305f\u308a
p1283
aV\u5ca9\u304c
p1284
aV\u5177\u3067
p1285
aV\u3061\u3087\u3063\u3068
p1286
aV\u7acb\u3061
p1287
aV\u5de6\u53f3
p1288
aV\u3081\u3063\u3061\u3083
p1289
aV\u90e8\u4f7f
p1290
aV\u80cc\u8ca0
p1291
aV\u96a0
p1292
aV\u6249
p1293
aV\u3055\u3042
p1294
aV\u30af\u30ea\u30c6\u30a3\u30ab\u30eb
p1295
aV\u5177\u3068
p1296
aV\u307b\u3063
p1297
aV\u305f\u3076\u3093
p1298
aV\u305b\u3081
p1299
aV\u3093\u3058\u3083
p1300
aV\u3055
p1301
aV\u3088\u304f
p1302
aV\u4f7f\u3046
p1303
aV\u305b\u308b
p1304
aV\u5ca9\u3060
p1305
aV\u30bc\u30ed
p1306
aV\u3088\u3046
p1307
aV\u3088\u3044
p1308
aV\u5c4b\u30fc
p1309
aV\u3075\u30fc
p1310
aV\u4f7f\u3044
p1311
aV*
p1312
aV\u4eba\u304b
p1313
aV\u7269
p1314
aV\u5145\u3067
p1315
aV\u66f8\u304d
p1316
aV\u3060\u306d
p1317
aV\u529b\u306b
p1318
aV\u307b\u3046
p1319
aV\u8cb7\u3063\u3066
p1320
aV\u68b0\u81ea
p1321
aV12
p1322
aV\u5c71\u8108
p1323
aV\u3076\u304b
p1324
aV\u30ef\u30fc\u30de\u30c3\u30d7
p1325
aV\u6cd5\u3068
p1326
a.